; ModuleID = '24/1715.c'
source_filename = "24/1715.c"
target datalayout = "e-m:e-p270:32:32-p271:32:32-p272:64:64-i64:64-f80:128-n8:16:32:64-S128"
target triple = "x86_64-pc-linux-gnu"

@.str = private unnamed_addr constant [4 x i8] c"%s\0A\00", align 1

; Function Attrs: noinline nounwind uwtable
define dso_local i32 @main() #0 {
  %1 = alloca i32, align 4
  %2 = alloca i32, align 4
  %3 = alloca i32, align 4
  %4 = alloca i32, align 4
  %5 = alloca i32, align 4
  %6 = alloca i32, align 4
  %7 = alloca i32, align 4
  %8 = alloca i32, align 4
  %9 = alloca [500 x i8], align 16
  %10 = alloca [300 x i8], align 16
  %11 = alloca [300 x i8], align 16
  %12 = alloca [300 x i8], align 16
  store i32 0, i32* %1, align 4
  store i32 0, i32* %4, align 4
  store i32 1000, i32* %5, align 4
  %13 = getelementptr inbounds [500 x i8], [500 x i8]* %9, i64 0, i64 0
  %14 = call i32 (i8*, ...) bitcast (i32 (...)* @gets to i32 (i8*, ...)*)(i8* %13)
  %15 = getelementptr inbounds [500 x i8], [500 x i8]* %9, i64 0, i64 0
  %16 = call i64 @strlen(i8* %15) #4
  %17 = trunc i64 %16 to i32
  store i32 %17, i32* %6, align 4
  store i32 0, i32* %2, align 4
  br label %18

18:                                               ; preds = %70, %0
  %19 = load i32, i32* %2, align 4
  %20 = load i32, i32* %6, align 4
  %21 = icmp slt i32 %19, %20
  br i1 %21, label %22, label %73

22:                                               ; preds = %18
  store i32 0, i32* %3, align 4
  br label %23

23:                                               ; preds = %30, %22
  %24 = load i32, i32* %2, align 4
  %25 = sext i32 %24 to i64
  %26 = getelementptr inbounds [500 x i8], [500 x i8]* %9, i64 0, i64 %25
  %27 = load i8, i8* %26, align 1
  %28 = sext i8 %27 to i32
  %29 = icmp ne i32 %28, 32
  br i1 %29, label %30, label %42

30:                                               ; preds = %23
  %31 = load i32, i32* %2, align 4
  %32 = sext i32 %31 to i64
  %33 = getelementptr inbounds [500 x i8], [500 x i8]* %9, i64 0, i64 %32
  %34 = load i8, i8* %33, align 1
  %35 = load i32, i32* %3, align 4
  %36 = sext i32 %35 to i64
  %37 = getelementptr inbounds [300 x i8], [300 x i8]* %10, i64 0, i64 %36
  store i8 %34, i8* %37, align 1
  %38 = load i32, i32* %3, align 4
  %39 = add nsw i32 %38, 1
  store i32 %39, i32* %3, align 4
  %40 = load i32, i32* %2, align 4
  %41 = add nsw i32 %40, 1
  store i32 %41, i32* %2, align 4
  br label %23

42:                                               ; preds = %23
  %43 = load i32, i32* %3, align 4
  %44 = sext i32 %43 to i64
  %45 = getelementptr inbounds [300 x i8], [300 x i8]* %10, i64 0, i64 %44
  store i8 0, i8* %45, align 1
  %46 = getelementptr inbounds [300 x i8], [300 x i8]* %10, i64 0, i64 0
  %47 = call i64 @strlen(i8* %46) #4
  %48 = trunc i64 %47 to i32
  store i32 %48, i32* %7, align 4
  %49 = load i32, i32* %4, align 4
  %50 = load i32, i32* %7, align 4
  %51 = icmp slt i32 %49, %50
  br i1 %51, label %52, label %57

52:                                               ; preds = %42
  %53 = load i32, i32* %7, align 4
  store i32 %53, i32* %4, align 4
  %54 = getelementptr inbounds [300 x i8], [300 x i8]* %11, i64 0, i64 0
  %55 = getelementptr inbounds [300 x i8], [300 x i8]* %10, i64 0, i64 0
  %56 = call i8* @strcpy(i8* %54, i8* %55) #5
  br label %57

57:                                               ; preds = %52, %42
  %58 = getelementptr inbounds [300 x i8], [300 x i8]* %10, i64 0, i64 0
  %59 = call i64 @strlen(i8* %58) #4
  %60 = trunc i64 %59 to i32
  store i32 %60, i32* %8, align 4
  %61 = load i32, i32* %5, align 4
  %62 = load i32, i32* %8, align 4
  %63 = icmp sgt i32 %61, %62
  br i1 %63, label %64, label %69

64:                                               ; preds = %57
  %65 = load i32, i32* %8, align 4
  store i32 %65, i32* %5, align 4
  %66 = getelementptr inbounds [300 x i8], [300 x i8]* %12, i64 0, i64 0
  %67 = getelementptr inbounds [300 x i8], [300 x i8]* %10, i64 0, i64 0
  %68 = call i8* @strcpy(i8* %66, i8* %67) #5
  br label %69

69:                                               ; preds = %64, %57
  br label %70

70:                                               ; preds = %69
  %71 = load i32, i32* %2, align 4
  %72 = add nsw i32 %71, 1
  store i32 %72, i32* %2, align 4
  br label %18

73:                                               ; preds = %18
  %74 = getelementptr inbounds [300 x i8], [300 x i8]* %11, i64 0, i64 0
  %75 = call i32 (i8*, ...) @printf(i8* getelementptr inbounds ([4 x i8], [4 x i8]* @.str, i64 0, i64 0), i8* %74)
  %76 = getelementptr inbounds [300 x i8], [300 x i8]* %12, i64 0, i64 0
  %77 = call i32 (i8*, ...) @printf(i8* getelementptr inbounds ([4 x i8], [4 x i8]* @.str, i64 0, i64 0), i8* %76)
  ret i32 0
}

declare dso_local i32 @gets(...) #1

; Function Attrs: nounwind readonly
declare dso_local i64 @strlen(i8*) #2

; Function Attrs: nounwind
declare dso_local i8* @strcpy(i8*, i8*) #3

declare dso_local i32 @printf(i8*, ...) #1


!llvm.module.flags = !{!0}
!llvm.ident = !{!1}

!0 = !{i32 1, !"wchar_size", i32 4}
!1 = !{!"clang version 10.0.0-4ubuntu1 "}
